libgrokj2k.so.1 libgrokj2k1 #MINVER#
 _ZNKSt13__future_base13_State_baseV221_M_is_deferred_futureEv@Base 7.2.0
 _ZNKSt5ctypeIcE8do_widenEc@Base 7.2.0
 _ZNSt13__future_base11_Task_stateISt5_BindIFZN3grk14WaveletForwardINS2_5dwt53EE3runEPNS2_13TileComponentEEUlvE0_vEESaIiEFivEE14_M_run_delayedESt8weak_ptrINS_13_State_baseV2EE@Base 7.2.0
 _ZNSt13__future_base11_Task_stateISt5_BindIFZN3grk14WaveletForwardINS2_5dwt53EE3runEPNS2_13TileComponentEEUlvE0_vEESaIiEFivEE6_M_runEv@Base 7.2.0
 _ZNSt13__future_base11_Task_stateISt5_BindIFZN3grk14WaveletForwardINS2_5dwt53EE3runEPNS2_13TileComponentEEUlvE0_vEESaIiEFivEE8_M_resetEv@Base 7.2.0
 _ZNSt13__future_base11_Task_stateISt5_BindIFZN3grk14WaveletForwardINS2_5dwt53EE3runEPNS2_13TileComponentEEUlvE0_vEESaIiEFivEED0Ev@Base 7.2.0
 _ZNSt13__future_base11_Task_stateISt5_BindIFZN3grk14WaveletForwardINS2_5dwt53EE3runEPNS2_13TileComponentEEUlvE0_vEESaIiEFivEED1Ev@Base 7.2.0
 _ZNSt13__future_base11_Task_stateISt5_BindIFZN3grk14WaveletForwardINS2_5dwt53EE3runEPNS2_13TileComponentEEUlvE0_vEESaIiEFivEED2Ev@Base 7.2.0
 _ZNSt13__future_base11_Task_stateISt5_BindIFZN3grk14WaveletForwardINS2_5dwt53EE3runEPNS2_13TileComponentEEUlvE_vEESaIiEFivEE14_M_run_delayedESt8weak_ptrINS_13_State_baseV2EE@Base 7.2.0
 _ZNSt13__future_base11_Task_stateISt5_BindIFZN3grk14WaveletForwardINS2_5dwt53EE3runEPNS2_13TileComponentEEUlvE_vEESaIiEFivEE6_M_runEv@Base 7.2.0
 _ZNSt13__future_base11_Task_stateISt5_BindIFZN3grk14WaveletForwardINS2_5dwt53EE3runEPNS2_13TileComponentEEUlvE_vEESaIiEFivEE8_M_resetEv@Base 7.2.0
 _ZNSt13__future_base11_Task_stateISt5_BindIFZN3grk14WaveletForwardINS2_5dwt53EE3runEPNS2_13TileComponentEEUlvE_vEESaIiEFivEED0Ev@Base 7.2.0
 _ZNSt13__future_base11_Task_stateISt5_BindIFZN3grk14WaveletForwardINS2_5dwt53EE3runEPNS2_13TileComponentEEUlvE_vEESaIiEFivEED1Ev@Base 7.2.0
 _ZNSt13__future_base11_Task_stateISt5_BindIFZN3grk14WaveletForwardINS2_5dwt53EE3runEPNS2_13TileComponentEEUlvE_vEESaIiEFivEED2Ev@Base 7.2.0
 _ZNSt13__future_base11_Task_stateISt5_BindIFZN3grk14WaveletForwardINS2_5dwt97EE3runEPNS2_13TileComponentEEUlvE0_vEESaIiEFivEE14_M_run_delayedESt8weak_ptrINS_13_State_baseV2EE@Base 7.2.0
 _ZNSt13__future_base11_Task_stateISt5_BindIFZN3grk14WaveletForwardINS2_5dwt97EE3runEPNS2_13TileComponentEEUlvE0_vEESaIiEFivEE6_M_runEv@Base 7.2.0
 _ZNSt13__future_base11_Task_stateISt5_BindIFZN3grk14WaveletForwardINS2_5dwt97EE3runEPNS2_13TileComponentEEUlvE0_vEESaIiEFivEE8_M_resetEv@Base 7.2.0
 _ZNSt13__future_base11_Task_stateISt5_BindIFZN3grk14WaveletForwardINS2_5dwt97EE3runEPNS2_13TileComponentEEUlvE0_vEESaIiEFivEED0Ev@Base 7.2.0
 _ZNSt13__future_base11_Task_stateISt5_BindIFZN3grk14WaveletForwardINS2_5dwt97EE3runEPNS2_13TileComponentEEUlvE0_vEESaIiEFivEED1Ev@Base 7.2.0
 _ZNSt13__future_base11_Task_stateISt5_BindIFZN3grk14WaveletForwardINS2_5dwt97EE3runEPNS2_13TileComponentEEUlvE0_vEESaIiEFivEED2Ev@Base 7.2.0
 _ZNSt13__future_base11_Task_stateISt5_BindIFZN3grk14WaveletForwardINS2_5dwt97EE3runEPNS2_13TileComponentEEUlvE_vEESaIiEFivEE14_M_run_delayedESt8weak_ptrINS_13_State_baseV2EE@Base 7.2.0
 _ZNSt13__future_base11_Task_stateISt5_BindIFZN3grk14WaveletForwardINS2_5dwt97EE3runEPNS2_13TileComponentEEUlvE_vEESaIiEFivEE6_M_runEv@Base 7.2.0
 _ZNSt13__future_base11_Task_stateISt5_BindIFZN3grk14WaveletForwardINS2_5dwt97EE3runEPNS2_13TileComponentEEUlvE_vEESaIiEFivEE8_M_resetEv@Base 7.2.0
 _ZNSt13__future_base11_Task_stateISt5_BindIFZN3grk14WaveletForwardINS2_5dwt97EE3runEPNS2_13TileComponentEEUlvE_vEESaIiEFivEED0Ev@Base 7.2.0
 _ZNSt13__future_base11_Task_stateISt5_BindIFZN3grk14WaveletForwardINS2_5dwt97EE3runEPNS2_13TileComponentEEUlvE_vEESaIiEFivEED1Ev@Base 7.2.0
 _ZNSt13__future_base11_Task_stateISt5_BindIFZN3grk14WaveletForwardINS2_5dwt97EE3runEPNS2_13TileComponentEEUlvE_vEESaIiEFivEED2Ev@Base 7.2.0
 _ZNSt13__future_base11_Task_stateISt5_BindIFZN3grk19decode_partial_tileINS2_7v4_dataELj4ELj4ELj4ENS2_9Partial97EEEbPNS2_13TileComponentEjP12sparse_arrayEUlvE0_vEESaIiEFivEE14_M_run_delayedESt8weak_ptrINS_13_State_baseV2EE@Base 7.2.0
 _ZNSt13__future_base11_Task_stateISt5_BindIFZN3grk19decode_partial_tileINS2_7v4_dataELj4ELj4ELj4ENS2_9Partial97EEEbPNS2_13TileComponentEjP12sparse_arrayEUlvE0_vEESaIiEFivEE6_M_runEv@Base 7.2.0
 _ZNSt13__future_base11_Task_stateISt5_BindIFZN3grk19decode_partial_tileINS2_7v4_dataELj4ELj4ELj4ENS2_9Partial97EEEbPNS2_13TileComponentEjP12sparse_arrayEUlvE0_vEESaIiEFivEE8_M_resetEv@Base 7.2.0
 _ZNSt13__future_base11_Task_stateISt5_BindIFZN3grk19decode_partial_tileINS2_7v4_dataELj4ELj4ELj4ENS2_9Partial97EEEbPNS2_13TileComponentEjP12sparse_arrayEUlvE0_vEESaIiEFivEED0Ev@Base 7.2.0
 _ZNSt13__future_base11_Task_stateISt5_BindIFZN3grk19decode_partial_tileINS2_7v4_dataELj4ELj4ELj4ENS2_9Partial97EEEbPNS2_13TileComponentEjP12sparse_arrayEUlvE0_vEESaIiEFivEED1Ev@Base 7.2.0
 _ZNSt13__future_base11_Task_stateISt5_BindIFZN3grk19decode_partial_tileINS2_7v4_dataELj4ELj4ELj4ENS2_9Partial97EEEbPNS2_13TileComponentEjP12sparse_arrayEUlvE0_vEESaIiEFivEED2Ev@Base 7.2.0
 _ZNSt13__future_base11_Task_stateISt5_BindIFZN3grk19decode_partial_tileINS2_7v4_dataELj4ELj4ELj4ENS2_9Partial97EEEbPNS2_13TileComponentEjP12sparse_arrayEUlvE_vEESaIiEFivEE14_M_run_delayedESt8weak_ptrINS_13_State_baseV2EE@Base 7.2.0
 _ZNSt13__future_base11_Task_stateISt5_BindIFZN3grk19decode_partial_tileINS2_7v4_dataELj4ELj4ELj4ENS2_9Partial97EEEbPNS2_13TileComponentEjP12sparse_arrayEUlvE_vEESaIiEFivEE6_M_runEv@Base 7.2.0
 _ZNSt13__future_base11_Task_stateISt5_BindIFZN3grk19decode_partial_tileINS2_7v4_dataELj4ELj4ELj4ENS2_9Partial97EEEbPNS2_13TileComponentEjP12sparse_arrayEUlvE_vEESaIiEFivEE8_M_resetEv@Base 7.2.0
 _ZNSt13__future_base11_Task_stateISt5_BindIFZN3grk19decode_partial_tileINS2_7v4_dataELj4ELj4ELj4ENS2_9Partial97EEEbPNS2_13TileComponentEjP12sparse_arrayEUlvE_vEESaIiEFivEED0Ev@Base 7.2.0
 _ZNSt13__future_base11_Task_stateISt5_BindIFZN3grk19decode_partial_tileINS2_7v4_dataELj4ELj4ELj4ENS2_9Partial97EEEbPNS2_13TileComponentEjP12sparse_arrayEUlvE_vEESaIiEFivEED1Ev@Base 7.2.0
 _ZNSt13__future_base11_Task_stateISt5_BindIFZN3grk19decode_partial_tileINS2_7v4_dataELj4ELj4ELj4ENS2_9Partial97EEEbPNS2_13TileComponentEjP12sparse_arrayEUlvE_vEESaIiEFivEED2Ev@Base 7.2.0
 _ZNSt13__future_base11_Task_stateISt5_BindIFZN3grk19decode_partial_tileIiLj1ELj4ELj2ENS2_9Partial53EEEbPNS2_13TileComponentEjP12sparse_arrayEUlvE0_vEESaIiEFivEE14_M_run_delayedESt8weak_ptrINS_13_State_baseV2EE@Base 7.2.0
 _ZNSt13__future_base11_Task_stateISt5_BindIFZN3grk19decode_partial_tileIiLj1ELj4ELj2ENS2_9Partial53EEEbPNS2_13TileComponentEjP12sparse_arrayEUlvE0_vEESaIiEFivEE6_M_runEv@Base 7.2.0
 _ZNSt13__future_base11_Task_stateISt5_BindIFZN3grk19decode_partial_tileIiLj1ELj4ELj2ENS2_9Partial53EEEbPNS2_13TileComponentEjP12sparse_arrayEUlvE0_vEESaIiEFivEE8_M_resetEv@Base 7.2.0
 _ZNSt13__future_base11_Task_stateISt5_BindIFZN3grk19decode_partial_tileIiLj1ELj4ELj2ENS2_9Partial53EEEbPNS2_13TileComponentEjP12sparse_arrayEUlvE0_vEESaIiEFivEED0Ev@Base 7.2.0
 _ZNSt13__future_base11_Task_stateISt5_BindIFZN3grk19decode_partial_tileIiLj1ELj4ELj2ENS2_9Partial53EEEbPNS2_13TileComponentEjP12sparse_arrayEUlvE0_vEESaIiEFivEED1Ev@Base 7.2.0
 _ZNSt13__future_base11_Task_stateISt5_BindIFZN3grk19decode_partial_tileIiLj1ELj4ELj2ENS2_9Partial53EEEbPNS2_13TileComponentEjP12sparse_arrayEUlvE0_vEESaIiEFivEED2Ev@Base 7.2.0
 _ZNSt13__future_base11_Task_stateISt5_BindIFZN3grk19decode_partial_tileIiLj1ELj4ELj2ENS2_9Partial53EEEbPNS2_13TileComponentEjP12sparse_arrayEUlvE_vEESaIiEFivEE14_M_run_delayedESt8weak_ptrINS_13_State_baseV2EE@Base 7.2.0
 _ZNSt13__future_base11_Task_stateISt5_BindIFZN3grk19decode_partial_tileIiLj1ELj4ELj2ENS2_9Partial53EEEbPNS2_13TileComponentEjP12sparse_arrayEUlvE_vEESaIiEFivEE6_M_runEv@Base 7.2.0
 _ZNSt13__future_base11_Task_stateISt5_BindIFZN3grk19decode_partial_tileIiLj1ELj4ELj2ENS2_9Partial53EEEbPNS2_13TileComponentEjP12sparse_arrayEUlvE_vEESaIiEFivEE8_M_resetEv@Base 7.2.0
 _ZNSt13__future_base11_Task_stateISt5_BindIFZN3grk19decode_partial_tileIiLj1ELj4ELj2ENS2_9Partial53EEEbPNS2_13TileComponentEjP12sparse_arrayEUlvE_vEESaIiEFivEED0Ev@Base 7.2.0
 _ZNSt13__future_base11_Task_stateISt5_BindIFZN3grk19decode_partial_tileIiLj1ELj4ELj2ENS2_9Partial53EEEbPNS2_13TileComponentEjP12sparse_arrayEUlvE_vEESaIiEFivEED1Ev@Base 7.2.0
 _ZNSt13__future_base11_Task_stateISt5_BindIFZN3grk19decode_partial_tileIiLj1ELj4ELj2ENS2_9Partial53EEEbPNS2_13TileComponentEjP12sparse_arrayEUlvE_vEESaIiEFivEED2Ev@Base 7.2.0
 _ZNSt13__future_base13_State_baseV217_M_complete_asyncEv@Base 7.2.0
 _ZNSt13__future_base13_State_baseV29_M_do_setEPSt8functionIFSt10unique_ptrINS_12_Result_baseENS3_8_DeleterEEvEEPb@Base 7.2.0
 _ZNSt13__future_base13_State_baseV2D0Ev@Base 7.2.0
 _ZNSt13__future_base13_State_baseV2D1Ev@Base 7.2.0
 _ZNSt13__future_base13_State_baseV2D2Ev@Base 7.2.0
 _ZNSt13__future_base7_ResultIiE10_M_destroyEv@Base 7.2.0
 _ZNSt13__future_base7_ResultIiED0Ev@Base 7.2.0
 _ZNSt13__future_base7_ResultIiED1Ev@Base 7.2.0
 _ZNSt13__future_base7_ResultIiED2Ev@Base 7.2.0
 _ZNSt14_Function_base13_Base_managerINSt13__future_base12_Task_setterISt10unique_ptrINS1_7_ResultIiEENS1_12_Result_base8_DeleterEEZNS1_11_Task_stateISt5_BindIFZN3grk14WaveletForwardINSB_5dwt53EE3runEPNSB_13TileComponentEEUlvE0_vEESaIiEFivEE14_M_run_delayedESt8weak_ptrINS1_13_State_baseV2EEEUlvE_iEEE10_M_managerERSt9_Any_dataRKST_St18_Manager_operation@Base 7.2.0
 _ZNSt14_Function_base13_Base_managerINSt13__future_base12_Task_setterISt10unique_ptrINS1_7_ResultIiEENS1_12_Result_base8_DeleterEEZNS1_11_Task_stateISt5_BindIFZN3grk14WaveletForwardINSB_5dwt53EE3runEPNSB_13TileComponentEEUlvE0_vEESaIiEFivEE6_M_runEvEUlvE_iEEE10_M_managerERSt9_Any_dataRKSQ_St18_Manager_operation@Base 7.2.0
 _ZNSt14_Function_base13_Base_managerINSt13__future_base12_Task_setterISt10unique_ptrINS1_7_ResultIiEENS1_12_Result_base8_DeleterEEZNS1_11_Task_stateISt5_BindIFZN3grk14WaveletForwardINSB_5dwt53EE3runEPNSB_13TileComponentEEUlvE_vEESaIiEFivEE14_M_run_delayedESt8weak_ptrINS1_13_State_baseV2EEEUlvE_iEEE10_M_managerERSt9_Any_dataRKST_St18_Manager_operation@Base 7.2.0
 _ZNSt14_Function_base13_Base_managerINSt13__future_base12_Task_setterISt10unique_ptrINS1_7_ResultIiEENS1_12_Result_base8_DeleterEEZNS1_11_Task_stateISt5_BindIFZN3grk14WaveletForwardINSB_5dwt53EE3runEPNSB_13TileComponentEEUlvE_vEESaIiEFivEE6_M_runEvEUlvE_iEEE10_M_managerERSt9_Any_dataRKSQ_St18_Manager_operation@Base 7.2.0
 _ZNSt14_Function_base13_Base_managerINSt13__future_base12_Task_setterISt10unique_ptrINS1_7_ResultIiEENS1_12_Result_base8_DeleterEEZNS1_11_Task_stateISt5_BindIFZN3grk14WaveletForwardINSB_5dwt97EE3runEPNSB_13TileComponentEEUlvE0_vEESaIiEFivEE14_M_run_delayedESt8weak_ptrINS1_13_State_baseV2EEEUlvE_iEEE10_M_managerERSt9_Any_dataRKST_St18_Manager_operation@Base 7.2.0
 _ZNSt14_Function_base13_Base_managerINSt13__future_base12_Task_setterISt10unique_ptrINS1_7_ResultIiEENS1_12_Result_base8_DeleterEEZNS1_11_Task_stateISt5_BindIFZN3grk14WaveletForwardINSB_5dwt97EE3runEPNSB_13TileComponentEEUlvE0_vEESaIiEFivEE6_M_runEvEUlvE_iEEE10_M_managerERSt9_Any_dataRKSQ_St18_Manager_operation@Base 7.2.0
 _ZNSt14_Function_base13_Base_managerINSt13__future_base12_Task_setterISt10unique_ptrINS1_7_ResultIiEENS1_12_Result_base8_DeleterEEZNS1_11_Task_stateISt5_BindIFZN3grk14WaveletForwardINSB_5dwt97EE3runEPNSB_13TileComponentEEUlvE_vEESaIiEFivEE14_M_run_delayedESt8weak_ptrINS1_13_State_baseV2EEEUlvE_iEEE10_M_managerERSt9_Any_dataRKST_St18_Manager_operation@Base 7.2.0
 _ZNSt14_Function_base13_Base_managerINSt13__future_base12_Task_setterISt10unique_ptrINS1_7_ResultIiEENS1_12_Result_base8_DeleterEEZNS1_11_Task_stateISt5_BindIFZN3grk14WaveletForwardINSB_5dwt97EE3runEPNSB_13TileComponentEEUlvE_vEESaIiEFivEE6_M_runEvEUlvE_iEEE10_M_managerERSt9_Any_dataRKSQ_St18_Manager_operation@Base 7.2.0
 _ZNSt14_Function_base13_Base_managerINSt13__future_base12_Task_setterISt10unique_ptrINS1_7_ResultIiEENS1_12_Result_base8_DeleterEEZNS1_11_Task_stateISt5_BindIFZN3grk19decode_partial_tileINSB_7v4_dataELj4ELj4ELj4ENSB_9Partial97EEEbPNSB_13TileComponentEjP12sparse_arrayEUlvE0_vEESaIiEFivEE14_M_run_delayedESt8weak_ptrINS1_13_State_baseV2EEEUlvE_iEEE10_M_managerERSt9_Any_dataRKSV_St18_Manager_operation@Base 7.2.0
 _ZNSt14_Function_base13_Base_managerINSt13__future_base12_Task_setterISt10unique_ptrINS1_7_ResultIiEENS1_12_Result_base8_DeleterEEZNS1_11_Task_stateISt5_BindIFZN3grk19decode_partial_tileINSB_7v4_dataELj4ELj4ELj4ENSB_9Partial97EEEbPNSB_13TileComponentEjP12sparse_arrayEUlvE0_vEESaIiEFivEE6_M_runEvEUlvE_iEEE10_M_managerERSt9_Any_dataRKSS_St18_Manager_operation@Base 7.2.0
 _ZNSt14_Function_base13_Base_managerINSt13__future_base12_Task_setterISt10unique_ptrINS1_7_ResultIiEENS1_12_Result_base8_DeleterEEZNS1_11_Task_stateISt5_BindIFZN3grk19decode_partial_tileINSB_7v4_dataELj4ELj4ELj4ENSB_9Partial97EEEbPNSB_13TileComponentEjP12sparse_arrayEUlvE_vEESaIiEFivEE14_M_run_delayedESt8weak_ptrINS1_13_State_baseV2EEEUlvE_iEEE10_M_managerERSt9_Any_dataRKSV_St18_Manager_operation@Base 7.2.0
 _ZNSt14_Function_base13_Base_managerINSt13__future_base12_Task_setterISt10unique_ptrINS1_7_ResultIiEENS1_12_Result_base8_DeleterEEZNS1_11_Task_stateISt5_BindIFZN3grk19decode_partial_tileINSB_7v4_dataELj4ELj4ELj4ENSB_9Partial97EEEbPNSB_13TileComponentEjP12sparse_arrayEUlvE_vEESaIiEFivEE6_M_runEvEUlvE_iEEE10_M_managerERSt9_Any_dataRKSS_St18_Manager_operation@Base 7.2.0
 _ZNSt14_Function_base13_Base_managerINSt13__future_base12_Task_setterISt10unique_ptrINS1_7_ResultIiEENS1_12_Result_base8_DeleterEEZNS1_11_Task_stateISt5_BindIFZN3grk19decode_partial_tileIiLj1ELj4ELj2ENSB_9Partial53EEEbPNSB_13TileComponentEjP12sparse_arrayEUlvE0_vEESaIiEFivEE14_M_run_delayedESt8weak_ptrINS1_13_State_baseV2EEEUlvE_iEEE10_M_managerERSt9_Any_dataRKSU_St18_Manager_operation@Base 7.2.0
 _ZNSt14_Function_base13_Base_managerINSt13__future_base12_Task_setterISt10unique_ptrINS1_7_ResultIiEENS1_12_Result_base8_DeleterEEZNS1_11_Task_stateISt5_BindIFZN3grk19decode_partial_tileIiLj1ELj4ELj2ENSB_9Partial53EEEbPNSB_13TileComponentEjP12sparse_arrayEUlvE0_vEESaIiEFivEE6_M_runEvEUlvE_iEEE10_M_managerERSt9_Any_dataRKSR_St18_Manager_operation@Base 7.2.0
 _ZNSt14_Function_base13_Base_managerINSt13__future_base12_Task_setterISt10unique_ptrINS1_7_ResultIiEENS1_12_Result_base8_DeleterEEZNS1_11_Task_stateISt5_BindIFZN3grk19decode_partial_tileIiLj1ELj4ELj2ENSB_9Partial53EEEbPNSB_13TileComponentEjP12sparse_arrayEUlvE_vEESaIiEFivEE14_M_run_delayedESt8weak_ptrINS1_13_State_baseV2EEEUlvE_iEEE10_M_managerERSt9_Any_dataRKSU_St18_Manager_operation@Base 7.2.0
 _ZNSt14_Function_base13_Base_managerINSt13__future_base12_Task_setterISt10unique_ptrINS1_7_ResultIiEENS1_12_Result_base8_DeleterEEZNS1_11_Task_stateISt5_BindIFZN3grk19decode_partial_tileIiLj1ELj4ELj2ENSB_9Partial53EEEbPNSB_13TileComponentEjP12sparse_arrayEUlvE_vEESaIiEFivEE6_M_runEvEUlvE_iEEE10_M_managerERSt9_Any_dataRKSR_St18_Manager_operation@Base 7.2.0
 _ZNSt14_Function_base13_Base_managerIZN10ThreadPool7enqueueIZN3grk14WaveletForwardINS3_5dwt53EE3runEPNS3_13TileComponentEEUlvE0_JEEESt6futureINSt9result_ofIFT_DpT0_EE4typeEEOSC_DpOSD_EUlvE_E10_M_managerERSt9_Any_dataRKSO_St18_Manager_operation@Base 7.2.0
 _ZNSt14_Function_base13_Base_managerIZN10ThreadPool7enqueueIZN3grk14WaveletForwardINS3_5dwt53EE3runEPNS3_13TileComponentEEUlvE_JEEESt6futureINSt9result_ofIFT_DpT0_EE4typeEEOSC_DpOSD_EUlvE_E10_M_managerERSt9_Any_dataRKSO_St18_Manager_operation@Base 7.2.0
 _ZNSt14_Function_base13_Base_managerIZN10ThreadPool7enqueueIZN3grk14WaveletForwardINS3_5dwt97EE3runEPNS3_13TileComponentEEUlvE0_JEEESt6futureINSt9result_ofIFT_DpT0_EE4typeEEOSC_DpOSD_EUlvE_E10_M_managerERSt9_Any_dataRKSO_St18_Manager_operation@Base 7.2.0
 _ZNSt14_Function_base13_Base_managerIZN10ThreadPool7enqueueIZN3grk14WaveletForwardINS3_5dwt97EE3runEPNS3_13TileComponentEEUlvE_JEEESt6futureINSt9result_ofIFT_DpT0_EE4typeEEOSC_DpOSD_EUlvE_E10_M_managerERSt9_Any_dataRKSO_St18_Manager_operation@Base 7.2.0
 _ZNSt14_Function_base13_Base_managerIZN10ThreadPool7enqueueIZN3grk19decode_partial_tileINS3_7v4_dataELj4ELj4ELj4ENS3_9Partial97EEEbPNS3_13TileComponentEjP12sparse_arrayEUlvE0_JEEESt6futureINSt9result_ofIFT_DpT0_EE4typeEEOSE_DpOSF_EUlvE_E10_M_managerERSt9_Any_dataRKSQ_St18_Manager_operation@Base 7.2.0
 _ZNSt14_Function_base13_Base_managerIZN10ThreadPool7enqueueIZN3grk19decode_partial_tileINS3_7v4_dataELj4ELj4ELj4ENS3_9Partial97EEEbPNS3_13TileComponentEjP12sparse_arrayEUlvE_JEEESt6futureINSt9result_ofIFT_DpT0_EE4typeEEOSE_DpOSF_EUlvE_E10_M_managerERSt9_Any_dataRKSQ_St18_Manager_operation@Base 7.2.0
 _ZNSt14_Function_base13_Base_managerIZN10ThreadPool7enqueueIZN3grk19decode_partial_tileIiLj1ELj4ELj2ENS3_9Partial53EEEbPNS3_13TileComponentEjP12sparse_arrayEUlvE0_JEEESt6futureINSt9result_ofIFT_DpT0_EE4typeEEOSD_DpOSE_EUlvE_E10_M_managerERSt9_Any_dataRKSP_St18_Manager_operation@Base 7.2.0
 _ZNSt14_Function_base13_Base_managerIZN10ThreadPool7enqueueIZN3grk19decode_partial_tileIiLj1ELj4ELj2ENS3_9Partial53EEEbPNS3_13TileComponentEjP12sparse_arrayEUlvE_JEEESt6futureINSt9result_ofIFT_DpT0_EE4typeEEOSD_DpOSE_EUlvE_E10_M_managerERSt9_Any_dataRKSP_St18_Manager_operation@Base 7.2.0
 _ZNSt15__exception_ptr12__dest_thunkISt12future_errorEEvPv@Base 7.2.0
 _ZNSt16_Sp_counted_baseILN9__gnu_cxx12_Lock_policyE2EE10_M_releaseEv@Base 7.2.0
 _ZNSt16_Sp_counted_baseILN9__gnu_cxx12_Lock_policyE2EE15_M_weak_releaseEv@Base 7.2.0
 _ZNSt17_Function_handlerIFSt10unique_ptrINSt13__future_base12_Result_baseENS2_8_DeleterEEvENS1_12_Task_setterIS0_INS1_7_ResultIiEES3_EZNS1_11_Task_stateISt5_BindIFZN3grk14WaveletForwardINSC_5dwt53EE3runEPNSC_13TileComponentEEUlvE0_vEESaIiEFivEE14_M_run_delayedESt8weak_ptrINS1_13_State_baseV2EEEUlvE_iEEE9_M_invokeERKSt9_Any_data@Base 7.2.0
 _ZNSt17_Function_handlerIFSt10unique_ptrINSt13__future_base12_Result_baseENS2_8_DeleterEEvENS1_12_Task_setterIS0_INS1_7_ResultIiEES3_EZNS1_11_Task_stateISt5_BindIFZN3grk14WaveletForwardINSC_5dwt53EE3runEPNSC_13TileComponentEEUlvE0_vEESaIiEFivEE6_M_runEvEUlvE_iEEE9_M_invokeERKSt9_Any_data@Base 7.2.0
 _ZNSt17_Function_handlerIFSt10unique_ptrINSt13__future_base12_Result_baseENS2_8_DeleterEEvENS1_12_Task_setterIS0_INS1_7_ResultIiEES3_EZNS1_11_Task_stateISt5_BindIFZN3grk14WaveletForwardINSC_5dwt53EE3runEPNSC_13TileComponentEEUlvE_vEESaIiEFivEE14_M_run_delayedESt8weak_ptrINS1_13_State_baseV2EEEUlvE_iEEE9_M_invokeERKSt9_Any_data@Base 7.2.0
 _ZNSt17_Function_handlerIFSt10unique_ptrINSt13__future_base12_Result_baseENS2_8_DeleterEEvENS1_12_Task_setterIS0_INS1_7_ResultIiEES3_EZNS1_11_Task_stateISt5_BindIFZN3grk14WaveletForwardINSC_5dwt53EE3runEPNSC_13TileComponentEEUlvE_vEESaIiEFivEE6_M_runEvEUlvE_iEEE9_M_invokeERKSt9_Any_data@Base 7.2.0
 _ZNSt17_Function_handlerIFSt10unique_ptrINSt13__future_base12_Result_baseENS2_8_DeleterEEvENS1_12_Task_setterIS0_INS1_7_ResultIiEES3_EZNS1_11_Task_stateISt5_BindIFZN3grk14WaveletForwardINSC_5dwt97EE3runEPNSC_13TileComponentEEUlvE0_vEESaIiEFivEE14_M_run_delayedESt8weak_ptrINS1_13_State_baseV2EEEUlvE_iEEE9_M_invokeERKSt9_Any_data@Base 7.2.0
 _ZNSt17_Function_handlerIFSt10unique_ptrINSt13__future_base12_Result_baseENS2_8_DeleterEEvENS1_12_Task_setterIS0_INS1_7_ResultIiEES3_EZNS1_11_Task_stateISt5_BindIFZN3grk14WaveletForwardINSC_5dwt97EE3runEPNSC_13TileComponentEEUlvE0_vEESaIiEFivEE6_M_runEvEUlvE_iEEE9_M_invokeERKSt9_Any_data@Base 7.2.0
 _ZNSt17_Function_handlerIFSt10unique_ptrINSt13__future_base12_Result_baseENS2_8_DeleterEEvENS1_12_Task_setterIS0_INS1_7_ResultIiEES3_EZNS1_11_Task_stateISt5_BindIFZN3grk14WaveletForwardINSC_5dwt97EE3runEPNSC_13TileComponentEEUlvE_vEESaIiEFivEE14_M_run_delayedESt8weak_ptrINS1_13_State_baseV2EEEUlvE_iEEE9_M_invokeERKSt9_Any_data@Base 7.2.0
 _ZNSt17_Function_handlerIFSt10unique_ptrINSt13__future_base12_Result_baseENS2_8_DeleterEEvENS1_12_Task_setterIS0_INS1_7_ResultIiEES3_EZNS1_11_Task_stateISt5_BindIFZN3grk14WaveletForwardINSC_5dwt97EE3runEPNSC_13TileComponentEEUlvE_vEESaIiEFivEE6_M_runEvEUlvE_iEEE9_M_invokeERKSt9_Any_data@Base 7.2.0
 _ZNSt17_Function_handlerIFSt10unique_ptrINSt13__future_base12_Result_baseENS2_8_DeleterEEvENS1_12_Task_setterIS0_INS1_7_ResultIiEES3_EZNS1_11_Task_stateISt5_BindIFZN3grk19decode_partial_tileINSC_7v4_dataELj4ELj4ELj4ENSC_9Partial97EEEbPNSC_13TileComponentEjP12sparse_arrayEUlvE0_vEESaIiEFivEE14_M_run_delayedESt8weak_ptrINS1_13_State_baseV2EEEUlvE_iEEE9_M_invokeERKSt9_Any_data@Base 7.2.0
 _ZNSt17_Function_handlerIFSt10unique_ptrINSt13__future_base12_Result_baseENS2_8_DeleterEEvENS1_12_Task_setterIS0_INS1_7_ResultIiEES3_EZNS1_11_Task_stateISt5_BindIFZN3grk19decode_partial_tileINSC_7v4_dataELj4ELj4ELj4ENSC_9Partial97EEEbPNSC_13TileComponentEjP12sparse_arrayEUlvE0_vEESaIiEFivEE6_M_runEvEUlvE_iEEE9_M_invokeERKSt9_Any_data@Base 7.2.0
 _ZNSt17_Function_handlerIFSt10unique_ptrINSt13__future_base12_Result_baseENS2_8_DeleterEEvENS1_12_Task_setterIS0_INS1_7_ResultIiEES3_EZNS1_11_Task_stateISt5_BindIFZN3grk19decode_partial_tileINSC_7v4_dataELj4ELj4ELj4ENSC_9Partial97EEEbPNSC_13TileComponentEjP12sparse_arrayEUlvE_vEESaIiEFivEE14_M_run_delayedESt8weak_ptrINS1_13_State_baseV2EEEUlvE_iEEE9_M_invokeERKSt9_Any_data@Base 7.2.0
 _ZNSt17_Function_handlerIFSt10unique_ptrINSt13__future_base12_Result_baseENS2_8_DeleterEEvENS1_12_Task_setterIS0_INS1_7_ResultIiEES3_EZNS1_11_Task_stateISt5_BindIFZN3grk19decode_partial_tileINSC_7v4_dataELj4ELj4ELj4ENSC_9Partial97EEEbPNSC_13TileComponentEjP12sparse_arrayEUlvE_vEESaIiEFivEE6_M_runEvEUlvE_iEEE9_M_invokeERKSt9_Any_data@Base 7.2.0
 _ZNSt17_Function_handlerIFSt10unique_ptrINSt13__future_base12_Result_baseENS2_8_DeleterEEvENS1_12_Task_setterIS0_INS1_7_ResultIiEES3_EZNS1_11_Task_stateISt5_BindIFZN3grk19decode_partial_tileIiLj1ELj4ELj2ENSC_9Partial53EEEbPNSC_13TileComponentEjP12sparse_arrayEUlvE0_vEESaIiEFivEE14_M_run_delayedESt8weak_ptrINS1_13_State_baseV2EEEUlvE_iEEE9_M_invokeERKSt9_Any_data@Base 7.2.0
 _ZNSt17_Function_handlerIFSt10unique_ptrINSt13__future_base12_Result_baseENS2_8_DeleterEEvENS1_12_Task_setterIS0_INS1_7_ResultIiEES3_EZNS1_11_Task_stateISt5_BindIFZN3grk19decode_partial_tileIiLj1ELj4ELj2ENSC_9Partial53EEEbPNSC_13TileComponentEjP12sparse_arrayEUlvE0_vEESaIiEFivEE6_M_runEvEUlvE_iEEE9_M_invokeERKSt9_Any_data@Base 7.2.0
 _ZNSt17_Function_handlerIFSt10unique_ptrINSt13__future_base12_Result_baseENS2_8_DeleterEEvENS1_12_Task_setterIS0_INS1_7_ResultIiEES3_EZNS1_11_Task_stateISt5_BindIFZN3grk19decode_partial_tileIiLj1ELj4ELj2ENSC_9Partial53EEEbPNSC_13TileComponentEjP12sparse_arrayEUlvE_vEESaIiEFivEE14_M_run_delayedESt8weak_ptrINS1_13_State_baseV2EEEUlvE_iEEE9_M_invokeERKSt9_Any_data@Base 7.2.0
 _ZNSt17_Function_handlerIFSt10unique_ptrINSt13__future_base12_Result_baseENS2_8_DeleterEEvENS1_12_Task_setterIS0_INS1_7_ResultIiEES3_EZNS1_11_Task_stateISt5_BindIFZN3grk19decode_partial_tileIiLj1ELj4ELj2ENSC_9Partial53EEEbPNSC_13TileComponentEjP12sparse_arrayEUlvE_vEESaIiEFivEE6_M_runEvEUlvE_iEEE9_M_invokeERKSt9_Any_data@Base 7.2.0
 _ZNSt23_Sp_counted_ptr_inplaceINSt13__future_base11_Task_stateISt5_BindIFZN3grk14WaveletForwardINS3_5dwt53EE3runEPNS3_13TileComponentEEUlvE0_vEESaIiEFivEEESC_LN9__gnu_cxx12_Lock_policyE2EE10_M_destroyEv@Base 7.2.0
 _ZNSt23_Sp_counted_ptr_inplaceINSt13__future_base11_Task_stateISt5_BindIFZN3grk14WaveletForwardINS3_5dwt53EE3runEPNS3_13TileComponentEEUlvE0_vEESaIiEFivEEESC_LN9__gnu_cxx12_Lock_policyE2EE10_M_disposeEv@Base 7.2.0
 _ZNSt23_Sp_counted_ptr_inplaceINSt13__future_base11_Task_stateISt5_BindIFZN3grk14WaveletForwardINS3_5dwt53EE3runEPNS3_13TileComponentEEUlvE0_vEESaIiEFivEEESC_LN9__gnu_cxx12_Lock_policyE2EE14_M_get_deleterERKSt9type_info@Base 7.2.0
 _ZNSt23_Sp_counted_ptr_inplaceINSt13__future_base11_Task_stateISt5_BindIFZN3grk14WaveletForwardINS3_5dwt53EE3runEPNS3_13TileComponentEEUlvE0_vEESaIiEFivEEESC_LN9__gnu_cxx12_Lock_policyE2EED0Ev@Base 7.2.0
 _ZNSt23_Sp_counted_ptr_inplaceINSt13__future_base11_Task_stateISt5_BindIFZN3grk14WaveletForwardINS3_5dwt53EE3runEPNS3_13TileComponentEEUlvE0_vEESaIiEFivEEESC_LN9__gnu_cxx12_Lock_policyE2EED1Ev@Base 7.2.0
 _ZNSt23_Sp_counted_ptr_inplaceINSt13__future_base11_Task_stateISt5_BindIFZN3grk14WaveletForwardINS3_5dwt53EE3runEPNS3_13TileComponentEEUlvE0_vEESaIiEFivEEESC_LN9__gnu_cxx12_Lock_policyE2EED2Ev@Base 7.2.0
 _ZNSt23_Sp_counted_ptr_inplaceINSt13__future_base11_Task_stateISt5_BindIFZN3grk14WaveletForwardINS3_5dwt53EE3runEPNS3_13TileComponentEEUlvE_vEESaIiEFivEEESC_LN9__gnu_cxx12_Lock_policyE2EE10_M_destroyEv@Base 7.2.0
 _ZNSt23_Sp_counted_ptr_inplaceINSt13__future_base11_Task_stateISt5_BindIFZN3grk14WaveletForwardINS3_5dwt53EE3runEPNS3_13TileComponentEEUlvE_vEESaIiEFivEEESC_LN9__gnu_cxx12_Lock_policyE2EE10_M_disposeEv@Base 7.2.0
 _ZNSt23_Sp_counted_ptr_inplaceINSt13__future_base11_Task_stateISt5_BindIFZN3grk14WaveletForwardINS3_5dwt53EE3runEPNS3_13TileComponentEEUlvE_vEESaIiEFivEEESC_LN9__gnu_cxx12_Lock_policyE2EE14_M_get_deleterERKSt9type_info@Base 7.2.0
 _ZNSt23_Sp_counted_ptr_inplaceINSt13__future_base11_Task_stateISt5_BindIFZN3grk14WaveletForwardINS3_5dwt53EE3runEPNS3_13TileComponentEEUlvE_vEESaIiEFivEEESC_LN9__gnu_cxx12_Lock_policyE2EED0Ev@Base 7.2.0
 _ZNSt23_Sp_counted_ptr_inplaceINSt13__future_base11_Task_stateISt5_BindIFZN3grk14WaveletForwardINS3_5dwt53EE3runEPNS3_13TileComponentEEUlvE_vEESaIiEFivEEESC_LN9__gnu_cxx12_Lock_policyE2EED1Ev@Base 7.2.0
 _ZNSt23_Sp_counted_ptr_inplaceINSt13__future_base11_Task_stateISt5_BindIFZN3grk14WaveletForwardINS3_5dwt53EE3runEPNS3_13TileComponentEEUlvE_vEESaIiEFivEEESC_LN9__gnu_cxx12_Lock_policyE2EED2Ev@Base 7.2.0
 _ZNSt23_Sp_counted_ptr_inplaceINSt13__future_base11_Task_stateISt5_BindIFZN3grk14WaveletForwardINS3_5dwt97EE3runEPNS3_13TileComponentEEUlvE0_vEESaIiEFivEEESC_LN9__gnu_cxx12_Lock_policyE2EE10_M_destroyEv@Base 7.2.0
 _ZNSt23_Sp_counted_ptr_inplaceINSt13__future_base11_Task_stateISt5_BindIFZN3grk14WaveletForwardINS3_5dwt97EE3runEPNS3_13TileComponentEEUlvE0_vEESaIiEFivEEESC_LN9__gnu_cxx12_Lock_policyE2EE10_M_disposeEv@Base 7.2.0
 _ZNSt23_Sp_counted_ptr_inplaceINSt13__future_base11_Task_stateISt5_BindIFZN3grk14WaveletForwardINS3_5dwt97EE3runEPNS3_13TileComponentEEUlvE0_vEESaIiEFivEEESC_LN9__gnu_cxx12_Lock_policyE2EE14_M_get_deleterERKSt9type_info@Base 7.2.0
 _ZNSt23_Sp_counted_ptr_inplaceINSt13__future_base11_Task_stateISt5_BindIFZN3grk14WaveletForwardINS3_5dwt97EE3runEPNS3_13TileComponentEEUlvE0_vEESaIiEFivEEESC_LN9__gnu_cxx12_Lock_policyE2EED0Ev@Base 7.2.0
 _ZNSt23_Sp_counted_ptr_inplaceINSt13__future_base11_Task_stateISt5_BindIFZN3grk14WaveletForwardINS3_5dwt97EE3runEPNS3_13TileComponentEEUlvE0_vEESaIiEFivEEESC_LN9__gnu_cxx12_Lock_policyE2EED1Ev@Base 7.2.0
 _ZNSt23_Sp_counted_ptr_inplaceINSt13__future_base11_Task_stateISt5_BindIFZN3grk14WaveletForwardINS3_5dwt97EE3runEPNS3_13TileComponentEEUlvE0_vEESaIiEFivEEESC_LN9__gnu_cxx12_Lock_policyE2EED2Ev@Base 7.2.0
 _ZNSt23_Sp_counted_ptr_inplaceINSt13__future_base11_Task_stateISt5_BindIFZN3grk14WaveletForwardINS3_5dwt97EE3runEPNS3_13TileComponentEEUlvE_vEESaIiEFivEEESC_LN9__gnu_cxx12_Lock_policyE2EE10_M_destroyEv@Base 7.2.0
 _ZNSt23_Sp_counted_ptr_inplaceINSt13__future_base11_Task_stateISt5_BindIFZN3grk14WaveletForwardINS3_5dwt97EE3runEPNS3_13TileComponentEEUlvE_vEESaIiEFivEEESC_LN9__gnu_cxx12_Lock_policyE2EE10_M_disposeEv@Base 7.2.0
 _ZNSt23_Sp_counted_ptr_inplaceINSt13__future_base11_Task_stateISt5_BindIFZN3grk14WaveletForwardINS3_5dwt97EE3runEPNS3_13TileComponentEEUlvE_vEESaIiEFivEEESC_LN9__gnu_cxx12_Lock_policyE2EE14_M_get_deleterERKSt9type_info@Base 7.2.0
 _ZNSt23_Sp_counted_ptr_inplaceINSt13__future_base11_Task_stateISt5_BindIFZN3grk14WaveletForwardINS3_5dwt97EE3runEPNS3_13TileComponentEEUlvE_vEESaIiEFivEEESC_LN9__gnu_cxx12_Lock_policyE2EED0Ev@Base 7.2.0
 _ZNSt23_Sp_counted_ptr_inplaceINSt13__future_base11_Task_stateISt5_BindIFZN3grk14WaveletForwardINS3_5dwt97EE3runEPNS3_13TileComponentEEUlvE_vEESaIiEFivEEESC_LN9__gnu_cxx12_Lock_policyE2EED1Ev@Base 7.2.0
 _ZNSt23_Sp_counted_ptr_inplaceINSt13__future_base11_Task_stateISt5_BindIFZN3grk14WaveletForwardINS3_5dwt97EE3runEPNS3_13TileComponentEEUlvE_vEESaIiEFivEEESC_LN9__gnu_cxx12_Lock_policyE2EED2Ev@Base 7.2.0
 _ZNSt23_Sp_counted_ptr_inplaceINSt13__future_base11_Task_stateISt5_BindIFZN3grk19decode_partial_tileINS3_7v4_dataELj4ELj4ELj4ENS3_9Partial97EEEbPNS3_13TileComponentEjP12sparse_arrayEUlvE0_vEESaIiEFivEEESE_LN9__gnu_cxx12_Lock_policyE2EE10_M_destroyEv@Base 7.2.0
 _ZNSt23_Sp_counted_ptr_inplaceINSt13__future_base11_Task_stateISt5_BindIFZN3grk19decode_partial_tileINS3_7v4_dataELj4ELj4ELj4ENS3_9Partial97EEEbPNS3_13TileComponentEjP12sparse_arrayEUlvE0_vEESaIiEFivEEESE_LN9__gnu_cxx12_Lock_policyE2EE10_M_disposeEv@Base 7.2.0
 _ZNSt23_Sp_counted_ptr_inplaceINSt13__future_base11_Task_stateISt5_BindIFZN3grk19decode_partial_tileINS3_7v4_dataELj4ELj4ELj4ENS3_9Partial97EEEbPNS3_13TileComponentEjP12sparse_arrayEUlvE0_vEESaIiEFivEEESE_LN9__gnu_cxx12_Lock_policyE2EE14_M_get_deleterERKSt9type_info@Base 7.2.0
 _ZNSt23_Sp_counted_ptr_inplaceINSt13__future_base11_Task_stateISt5_BindIFZN3grk19decode_partial_tileINS3_7v4_dataELj4ELj4ELj4ENS3_9Partial97EEEbPNS3_13TileComponentEjP12sparse_arrayEUlvE0_vEESaIiEFivEEESE_LN9__gnu_cxx12_Lock_policyE2EED0Ev@Base 7.2.0
 _ZNSt23_Sp_counted_ptr_inplaceINSt13__future_base11_Task_stateISt5_BindIFZN3grk19decode_partial_tileINS3_7v4_dataELj4ELj4ELj4ENS3_9Partial97EEEbPNS3_13TileComponentEjP12sparse_arrayEUlvE0_vEESaIiEFivEEESE_LN9__gnu_cxx12_Lock_policyE2EED1Ev@Base 7.2.0
 _ZNSt23_Sp_counted_ptr_inplaceINSt13__future_base11_Task_stateISt5_BindIFZN3grk19decode_partial_tileINS3_7v4_dataELj4ELj4ELj4ENS3_9Partial97EEEbPNS3_13TileComponentEjP12sparse_arrayEUlvE0_vEESaIiEFivEEESE_LN9__gnu_cxx12_Lock_policyE2EED2Ev@Base 7.2.0
 _ZNSt23_Sp_counted_ptr_inplaceINSt13__future_base11_Task_stateISt5_BindIFZN3grk19decode_partial_tileINS3_7v4_dataELj4ELj4ELj4ENS3_9Partial97EEEbPNS3_13TileComponentEjP12sparse_arrayEUlvE_vEESaIiEFivEEESE_LN9__gnu_cxx12_Lock_policyE2EE10_M_destroyEv@Base 7.2.0
 _ZNSt23_Sp_counted_ptr_inplaceINSt13__future_base11_Task_stateISt5_BindIFZN3grk19decode_partial_tileINS3_7v4_dataELj4ELj4ELj4ENS3_9Partial97EEEbPNS3_13TileComponentEjP12sparse_arrayEUlvE_vEESaIiEFivEEESE_LN9__gnu_cxx12_Lock_policyE2EE10_M_disposeEv@Base 7.2.0
 _ZNSt23_Sp_counted_ptr_inplaceINSt13__future_base11_Task_stateISt5_BindIFZN3grk19decode_partial_tileINS3_7v4_dataELj4ELj4ELj4ENS3_9Partial97EEEbPNS3_13TileComponentEjP12sparse_arrayEUlvE_vEESaIiEFivEEESE_LN9__gnu_cxx12_Lock_policyE2EE14_M_get_deleterERKSt9type_info@Base 7.2.0
 _ZNSt23_Sp_counted_ptr_inplaceINSt13__future_base11_Task_stateISt5_BindIFZN3grk19decode_partial_tileINS3_7v4_dataELj4ELj4ELj4ENS3_9Partial97EEEbPNS3_13TileComponentEjP12sparse_arrayEUlvE_vEESaIiEFivEEESE_LN9__gnu_cxx12_Lock_policyE2EED0Ev@Base 7.2.0
 _ZNSt23_Sp_counted_ptr_inplaceINSt13__future_base11_Task_stateISt5_BindIFZN3grk19decode_partial_tileINS3_7v4_dataELj4ELj4ELj4ENS3_9Partial97EEEbPNS3_13TileComponentEjP12sparse_arrayEUlvE_vEESaIiEFivEEESE_LN9__gnu_cxx12_Lock_policyE2EED1Ev@Base 7.2.0
 _ZNSt23_Sp_counted_ptr_inplaceINSt13__future_base11_Task_stateISt5_BindIFZN3grk19decode_partial_tileINS3_7v4_dataELj4ELj4ELj4ENS3_9Partial97EEEbPNS3_13TileComponentEjP12sparse_arrayEUlvE_vEESaIiEFivEEESE_LN9__gnu_cxx12_Lock_policyE2EED2Ev@Base 7.2.0
 _ZNSt23_Sp_counted_ptr_inplaceINSt13__future_base11_Task_stateISt5_BindIFZN3grk19decode_partial_tileIiLj1ELj4ELj2ENS3_9Partial53EEEbPNS3_13TileComponentEjP12sparse_arrayEUlvE0_vEESaIiEFivEEESD_LN9__gnu_cxx12_Lock_policyE2EE10_M_destroyEv@Base 7.2.0
 _ZNSt23_Sp_counted_ptr_inplaceINSt13__future_base11_Task_stateISt5_BindIFZN3grk19decode_partial_tileIiLj1ELj4ELj2ENS3_9Partial53EEEbPNS3_13TileComponentEjP12sparse_arrayEUlvE0_vEESaIiEFivEEESD_LN9__gnu_cxx12_Lock_policyE2EE10_M_disposeEv@Base 7.2.0
 _ZNSt23_Sp_counted_ptr_inplaceINSt13__future_base11_Task_stateISt5_BindIFZN3grk19decode_partial_tileIiLj1ELj4ELj2ENS3_9Partial53EEEbPNS3_13TileComponentEjP12sparse_arrayEUlvE0_vEESaIiEFivEEESD_LN9__gnu_cxx12_Lock_policyE2EE14_M_get_deleterERKSt9type_info@Base 7.2.0
 _ZNSt23_Sp_counted_ptr_inplaceINSt13__future_base11_Task_stateISt5_BindIFZN3grk19decode_partial_tileIiLj1ELj4ELj2ENS3_9Partial53EEEbPNS3_13TileComponentEjP12sparse_arrayEUlvE0_vEESaIiEFivEEESD_LN9__gnu_cxx12_Lock_policyE2EED0Ev@Base 7.2.0
 _ZNSt23_Sp_counted_ptr_inplaceINSt13__future_base11_Task_stateISt5_BindIFZN3grk19decode_partial_tileIiLj1ELj4ELj2ENS3_9Partial53EEEbPNS3_13TileComponentEjP12sparse_arrayEUlvE0_vEESaIiEFivEEESD_LN9__gnu_cxx12_Lock_policyE2EED1Ev@Base 7.2.0
 _ZNSt23_Sp_counted_ptr_inplaceINSt13__future_base11_Task_stateISt5_BindIFZN3grk19decode_partial_tileIiLj1ELj4ELj2ENS3_9Partial53EEEbPNS3_13TileComponentEjP12sparse_arrayEUlvE0_vEESaIiEFivEEESD_LN9__gnu_cxx12_Lock_policyE2EED2Ev@Base 7.2.0
 _ZNSt23_Sp_counted_ptr_inplaceINSt13__future_base11_Task_stateISt5_BindIFZN3grk19decode_partial_tileIiLj1ELj4ELj2ENS3_9Partial53EEEbPNS3_13TileComponentEjP12sparse_arrayEUlvE_vEESaIiEFivEEESD_LN9__gnu_cxx12_Lock_policyE2EE10_M_destroyEv@Base 7.2.0
 _ZNSt23_Sp_counted_ptr_inplaceINSt13__future_base11_Task_stateISt5_BindIFZN3grk19decode_partial_tileIiLj1ELj4ELj2ENS3_9Partial53EEEbPNS3_13TileComponentEjP12sparse_arrayEUlvE_vEESaIiEFivEEESD_LN9__gnu_cxx12_Lock_policyE2EE10_M_disposeEv@Base 7.2.0
 _ZNSt23_Sp_counted_ptr_inplaceINSt13__future_base11_Task_stateISt5_BindIFZN3grk19decode_partial_tileIiLj1ELj4ELj2ENS3_9Partial53EEEbPNS3_13TileComponentEjP12sparse_arrayEUlvE_vEESaIiEFivEEESD_LN9__gnu_cxx12_Lock_policyE2EE14_M_get_deleterERKSt9type_info@Base 7.2.0
 _ZNSt23_Sp_counted_ptr_inplaceINSt13__future_base11_Task_stateISt5_BindIFZN3grk19decode_partial_tileIiLj1ELj4ELj2ENS3_9Partial53EEEbPNS3_13TileComponentEjP12sparse_arrayEUlvE_vEESaIiEFivEEESD_LN9__gnu_cxx12_Lock_policyE2EED0Ev@Base 7.2.0
 _ZNSt23_Sp_counted_ptr_inplaceINSt13__future_base11_Task_stateISt5_BindIFZN3grk19decode_partial_tileIiLj1ELj4ELj2ENS3_9Partial53EEEbPNS3_13TileComponentEjP12sparse_arrayEUlvE_vEESaIiEFivEEESD_LN9__gnu_cxx12_Lock_policyE2EED1Ev@Base 7.2.0
 _ZNSt23_Sp_counted_ptr_inplaceINSt13__future_base11_Task_stateISt5_BindIFZN3grk19decode_partial_tileIiLj1ELj4ELj2ENS3_9Partial53EEEbPNS3_13TileComponentEjP12sparse_arrayEUlvE_vEESaIiEFivEEESD_LN9__gnu_cxx12_Lock_policyE2EED2Ev@Base 7.2.0
 _ZNSt23_Sp_counted_ptr_inplaceISt13packaged_taskIFivEESaIS2_ELN9__gnu_cxx12_Lock_policyE2EE10_M_destroyEv@Base 7.2.0
 _ZNSt23_Sp_counted_ptr_inplaceISt13packaged_taskIFivEESaIS2_ELN9__gnu_cxx12_Lock_policyE2EE10_M_disposeEv@Base 7.2.0
 _ZNSt23_Sp_counted_ptr_inplaceISt13packaged_taskIFivEESaIS2_ELN9__gnu_cxx12_Lock_policyE2EE14_M_get_deleterERKSt9type_info@Base 7.2.0
 _ZNSt23_Sp_counted_ptr_inplaceISt13packaged_taskIFivEESaIS2_ELN9__gnu_cxx12_Lock_policyE2EED0Ev@Base 7.2.0
 _ZNSt23_Sp_counted_ptr_inplaceISt13packaged_taskIFivEESaIS2_ELN9__gnu_cxx12_Lock_policyE2EED1Ev@Base 7.2.0
 _ZNSt23_Sp_counted_ptr_inplaceISt13packaged_taskIFivEESaIS2_ELN9__gnu_cxx12_Lock_policyE2EED2Ev@Base 7.2.0
 _ZNSt5dequeISt8functionIFvvEESaIS2_EE17_M_reallocate_mapEmb@Base 7.2.0
 _ZNSt5dequeISt8functionIFvvEESaIS2_EE19_M_destroy_data_auxESt15_Deque_iteratorIS2_RS2_PS2_ES8_@Base 7.2.0
 _ZNSt5dequeISt8functionIFvvEESaIS2_EED1Ev@Base 7.2.0
 _ZNSt5dequeISt8functionIFvvEESaIS2_EED2Ev@Base 7.2.0
 _ZNSt6futureIiE3getEv@Base 7.2.0
 _ZNSt6thread11_State_implINS_8_InvokerISt5tupleIJZN10ThreadPoolC4EmEUlvE_EEEEE6_M_runEv@Base 7.2.0
 _ZNSt6thread11_State_implINS_8_InvokerISt5tupleIJZN10ThreadPoolC4EmEUlvE_EEEEED0Ev@Base 7.2.0
 _ZNSt6thread11_State_implINS_8_InvokerISt5tupleIJZN10ThreadPoolC4EmEUlvE_EEEEED1Ev@Base 7.2.0
 _ZNSt6thread11_State_implINS_8_InvokerISt5tupleIJZN10ThreadPoolC4EmEUlvE_EEEEED2Ev@Base 7.2.0
 _ZNSt6vectorISt6futureIiESaIS1_EE12emplace_backIJS1_EEERS1_DpOT_@Base 7.2.0
 _ZNSt6vectorISt6futureIiESaIS1_EE17_M_realloc_insertIJS1_EEEvN9__gnu_cxx17__normal_iteratorIPS1_S3_EEDpOT_@Base 7.2.0
 _ZNSt6vectorISt6futureIiESaIS1_EED1Ev@Base 7.2.0
 _ZNSt6vectorISt6futureIiESaIS1_EED2Ev@Base 7.2.0
 _ZNSt6vectorISt6threadSaIS0_EE17_M_realloc_insertIJZN10ThreadPoolC4EmEUlvE_EEEvN9__gnu_cxx17__normal_iteratorIPS0_S2_EEDpOT_@Base 7.2.0
 _ZNSt6vectorIjSaIjEE17_M_realloc_insertIJRKjEEEvN9__gnu_cxx17__normal_iteratorIPjS1_EEDpOT_@Base 7.2.0
 _ZNSt7__cxx1112basic_stringIcSt11char_traitsIcESaIcEE10_M_replaceEmmPKcm@Base 7.2.0
 _ZNSt7__cxx1112basic_stringIcSt11char_traitsIcESaIcEE9_M_appendEPKcm@Base 7.2.0
 _ZNSt7__cxx1112basic_stringIcSt11char_traitsIcESaIcEE9_M_assignERKS4_@Base 7.2.0
 _ZNSt7__cxx1112basic_stringIcSt11char_traitsIcESaIcEE9_M_createERmm@Base 7.2.0
 _ZNSt7__cxx1112basic_stringIcSt11char_traitsIcESaIcEE9_M_mutateEmmPKcm@Base 7.2.0
 _ZNSt8_Rb_treeINSt6thread2idESt4pairIKS1_iESt10_Select1stIS4_ESt4lessIS1_ESaIS4_EE14_M_insert_nodeEPSt18_Rb_tree_node_baseSC_PSt13_Rb_tree_nodeIS4_E@Base 7.2.0
 _ZNSt8_Rb_treeINSt6thread2idESt4pairIKS1_iESt10_Select1stIS4_ESt4lessIS1_ESaIS4_EE24_M_get_insert_unique_posERS3_@Base 7.2.0
 _ZNSt8_Rb_treeINSt6thread2idESt4pairIKS1_iESt10_Select1stIS4_ESt4lessIS1_ESaIS4_EE29_M_get_insert_hint_unique_posESt23_Rb_tree_const_iteratorIS4_ERS3_@Base 7.2.0
 _ZNSt8_Rb_treeINSt6thread2idESt4pairIKS1_iESt10_Select1stIS4_ESt4lessIS1_ESaIS4_EE8_M_eraseEPSt13_Rb_tree_nodeIS4_E@Base 7.2.0
 _ZNSt8_Rb_treeIhSt4pairIKhPSt6vectorIjSaIjEEESt10_Select1stIS6_ESt4lessIhESaIS6_EE22_M_emplace_hint_uniqueIJRKSt21piecewise_construct_tSt5tupleIJRS1_EESH_IJEEEEESt17_Rb_tree_iteratorIS6_ESt23_Rb_tree_const_iteratorIS6_EDpOT_@Base 7.2.0
 _ZNSt8_Rb_treeIhSt4pairIKhPSt6vectorIjSaIjEEESt10_Select1stIS6_ESt4lessIhESaIS6_EE24_M_get_insert_unique_posERS1_@Base 7.2.0
 _ZNSt8_Rb_treeIhSt4pairIKhPSt6vectorIjSaIjEEESt10_Select1stIS6_ESt4lessIhESaIS6_EE29_M_get_insert_hint_unique_posESt23_Rb_tree_const_iteratorIS6_ERS1_@Base 7.2.0
 _ZNSt8_Rb_treeIhSt4pairIKhPSt6vectorIjSaIjEEESt10_Select1stIS6_ESt4lessIhESaIS6_EE8_M_eraseEPSt13_Rb_tree_nodeIS6_E@Base 7.2.0
 _ZSt19piecewise_construct@Base 7.2.0
 _ZSt9call_onceIMNSt13__future_base13_State_baseV2EFvPSt8functionIFSt10unique_ptrINS0_12_Result_baseENS4_8_DeleterEEvEEPbEJPS1_S9_SA_EEvRSt9once_flagOT_DpOT0_@Base 7.2.0
 _ZTINSt13__future_base11_Task_stateISt5_BindIFZN3grk14WaveletForwardINS2_5dwt53EE3runEPNS2_13TileComponentEEUlvE0_vEESaIiEFivEEE@Base 7.2.0
 _ZTINSt13__future_base11_Task_stateISt5_BindIFZN3grk14WaveletForwardINS2_5dwt53EE3runEPNS2_13TileComponentEEUlvE_vEESaIiEFivEEE@Base 7.2.0
 _ZTINSt13__future_base11_Task_stateISt5_BindIFZN3grk14WaveletForwardINS2_5dwt97EE3runEPNS2_13TileComponentEEUlvE0_vEESaIiEFivEEE@Base 7.2.0
 _ZTINSt13__future_base11_Task_stateISt5_BindIFZN3grk14WaveletForwardINS2_5dwt97EE3runEPNS2_13TileComponentEEUlvE_vEESaIiEFivEEE@Base 7.2.0
 _ZTINSt13__future_base11_Task_stateISt5_BindIFZN3grk19decode_partial_tileINS2_7v4_dataELj4ELj4ELj4ENS2_9Partial97EEEbPNS2_13TileComponentEjP12sparse_arrayEUlvE0_vEESaIiEFivEEE@Base 7.2.0
 _ZTINSt13__future_base11_Task_stateISt5_BindIFZN3grk19decode_partial_tileINS2_7v4_dataELj4ELj4ELj4ENS2_9Partial97EEEbPNS2_13TileComponentEjP12sparse_arrayEUlvE_vEESaIiEFivEEE@Base 7.2.0
 _ZTINSt13__future_base11_Task_stateISt5_BindIFZN3grk19decode_partial_tileIiLj1ELj4ELj2ENS2_9Partial53EEEbPNS2_13TileComponentEjP12sparse_arrayEUlvE0_vEESaIiEFivEEE@Base 7.2.0
 _ZTINSt13__future_base11_Task_stateISt5_BindIFZN3grk19decode_partial_tileIiLj1ELj4ELj2ENS2_9Partial53EEEbPNS2_13TileComponentEjP12sparse_arrayEUlvE_vEESaIiEFivEEE@Base 7.2.0
 _ZTINSt13__future_base12_Task_setterISt10unique_ptrINS_7_ResultIiEENS_12_Result_base8_DeleterEEZNS_11_Task_stateISt5_BindIFZN3grk14WaveletForwardINS9_5dwt53EE3runEPNS9_13TileComponentEEUlvE0_vEESaIiEFivEE14_M_run_delayedESt8weak_ptrINS_13_State_baseV2EEEUlvE_iEE@Base 7.2.0
 _ZTINSt13__future_base12_Task_setterISt10unique_ptrINS_7_ResultIiEENS_12_Result_base8_DeleterEEZNS_11_Task_stateISt5_BindIFZN3grk14WaveletForwardINS9_5dwt53EE3runEPNS9_13TileComponentEEUlvE0_vEESaIiEFivEE6_M_runEvEUlvE_iEE@Base 7.2.0
 _ZTINSt13__future_base12_Task_setterISt10unique_ptrINS_7_ResultIiEENS_12_Result_base8_DeleterEEZNS_11_Task_stateISt5_BindIFZN3grk14WaveletForwardINS9_5dwt53EE3runEPNS9_13TileComponentEEUlvE_vEESaIiEFivEE14_M_run_delayedESt8weak_ptrINS_13_State_baseV2EEEUlvE_iEE@Base 7.2.0
 _ZTINSt13__future_base12_Task_setterISt10unique_ptrINS_7_ResultIiEENS_12_Result_base8_DeleterEEZNS_11_Task_stateISt5_BindIFZN3grk14WaveletForwardINS9_5dwt53EE3runEPNS9_13TileComponentEEUlvE_vEESaIiEFivEE6_M_runEvEUlvE_iEE@Base 7.2.0
 _ZTINSt13__future_base12_Task_setterISt10unique_ptrINS_7_ResultIiEENS_12_Result_base8_DeleterEEZNS_11_Task_stateISt5_BindIFZN3grk14WaveletForwardINS9_5dwt97EE3runEPNS9_13TileComponentEEUlvE0_vEESaIiEFivEE14_M_run_delayedESt8weak_ptrINS_13_State_baseV2EEEUlvE_iEE@Base 7.2.0
 _ZTINSt13__future_base12_Task_setterISt10unique_ptrINS_7_ResultIiEENS_12_Result_base8_DeleterEEZNS_11_Task_stateISt5_BindIFZN3grk14WaveletForwardINS9_5dwt97EE3runEPNS9_13TileComponentEEUlvE0_vEESaIiEFivEE6_M_runEvEUlvE_iEE@Base 7.2.0
 _ZTINSt13__future_base12_Task_setterISt10unique_ptrINS_7_ResultIiEENS_12_Result_base8_DeleterEEZNS_11_Task_stateISt5_BindIFZN3grk14WaveletForwardINS9_5dwt97EE3runEPNS9_13TileComponentEEUlvE_vEESaIiEFivEE14_M_run_delayedESt8weak_ptrINS_13_State_baseV2EEEUlvE_iEE@Base 7.2.0
 _ZTINSt13__future_base12_Task_setterISt10unique_ptrINS_7_ResultIiEENS_12_Result_base8_DeleterEEZNS_11_Task_stateISt5_BindIFZN3grk14WaveletForwardINS9_5dwt97EE3runEPNS9_13TileComponentEEUlvE_vEESaIiEFivEE6_M_runEvEUlvE_iEE@Base 7.2.0
 _ZTINSt13__future_base12_Task_setterISt10unique_ptrINS_7_ResultIiEENS_12_Result_base8_DeleterEEZNS_11_Task_stateISt5_BindIFZN3grk19decode_partial_tileINS9_7v4_dataELj4ELj4ELj4ENS9_9Partial97EEEbPNS9_13TileComponentEjP12sparse_arrayEUlvE0_vEESaIiEFivEE14_M_run_delayedESt8weak_ptrINS_13_State_baseV2EEEUlvE_iEE@Base 7.2.0
 _ZTINSt13__future_base12_Task_setterISt10unique_ptrINS_7_ResultIiEENS_12_Result_base8_DeleterEEZNS_11_Task_stateISt5_BindIFZN3grk19decode_partial_tileINS9_7v4_dataELj4ELj4ELj4ENS9_9Partial97EEEbPNS9_13TileComponentEjP12sparse_arrayEUlvE0_vEESaIiEFivEE6_M_runEvEUlvE_iEE@Base 7.2.0
 _ZTINSt13__future_base12_Task_setterISt10unique_ptrINS_7_ResultIiEENS_12_Result_base8_DeleterEEZNS_11_Task_stateISt5_BindIFZN3grk19decode_partial_tileINS9_7v4_dataELj4ELj4ELj4ENS9_9Partial97EEEbPNS9_13TileComponentEjP12sparse_arrayEUlvE_vEESaIiEFivEE14_M_run_delayedESt8weak_ptrINS_13_State_baseV2EEEUlvE_iEE@Base 7.2.0
 _ZTINSt13__future_base12_Task_setterISt10unique_ptrINS_7_ResultIiEENS_12_Result_base8_DeleterEEZNS_11_Task_stateISt5_BindIFZN3grk19decode_partial_tileINS9_7v4_dataELj4ELj4ELj4ENS9_9Partial97EEEbPNS9_13TileComponentEjP12sparse_arrayEUlvE_vEESaIiEFivEE6_M_runEvEUlvE_iEE@Base 7.2.0
 _ZTINSt13__future_base12_Task_setterISt10unique_ptrINS_7_ResultIiEENS_12_Result_base8_DeleterEEZNS_11_Task_stateISt5_BindIFZN3grk19decode_partial_tileIiLj1ELj4ELj2ENS9_9Partial53EEEbPNS9_13TileComponentEjP12sparse_arrayEUlvE0_vEESaIiEFivEE14_M_run_delayedESt8weak_ptrINS_13_State_baseV2EEEUlvE_iEE@Base 7.2.0
 _ZTINSt13__future_base12_Task_setterISt10unique_ptrINS_7_ResultIiEENS_12_Result_base8_DeleterEEZNS_11_Task_stateISt5_BindIFZN3grk19decode_partial_tileIiLj1ELj4ELj2ENS9_9Partial53EEEbPNS9_13TileComponentEjP12sparse_arrayEUlvE0_vEESaIiEFivEE6_M_runEvEUlvE_iEE@Base 7.2.0
 _ZTINSt13__future_base12_Task_setterISt10unique_ptrINS_7_ResultIiEENS_12_Result_base8_DeleterEEZNS_11_Task_stateISt5_BindIFZN3grk19decode_partial_tileIiLj1ELj4ELj2ENS9_9Partial53EEEbPNS9_13TileComponentEjP12sparse_arrayEUlvE_vEESaIiEFivEE14_M_run_delayedESt8weak_ptrINS_13_State_baseV2EEEUlvE_iEE@Base 7.2.0
 _ZTINSt13__future_base12_Task_setterISt10unique_ptrINS_7_ResultIiEENS_12_Result_base8_DeleterEEZNS_11_Task_stateISt5_BindIFZN3grk19decode_partial_tileIiLj1ELj4ELj2ENS9_9Partial53EEEbPNS9_13TileComponentEjP12sparse_arrayEUlvE_vEESaIiEFivEE6_M_runEvEUlvE_iEE@Base 7.2.0
 _ZTINSt13__future_base13_State_baseV2E@Base 7.2.0
 _ZTINSt13__future_base16_Task_state_baseIFivEEE@Base 7.2.0
 _ZTINSt13__future_base7_ResultIiEE@Base 7.2.0
 _ZTINSt6thread11_State_implINS_8_InvokerISt5tupleIJZN10ThreadPoolC4EmEUlvE_EEEEEE@Base 7.2.0
 _ZTIPSt9exception@Base 7.2.0
 _ZTISt11_Mutex_baseILN9__gnu_cxx12_Lock_policyE2EE@Base 7.2.0
 _ZTISt16_Sp_counted_baseILN9__gnu_cxx12_Lock_policyE2EE@Base 7.2.0
 _ZTISt23_Sp_counted_ptr_inplaceINSt13__future_base11_Task_stateISt5_BindIFZN3grk14WaveletForwardINS3_5dwt53EE3runEPNS3_13TileComponentEEUlvE0_vEESaIiEFivEEESC_LN9__gnu_cxx12_Lock_policyE2EE@Base 7.2.0
 _ZTISt23_Sp_counted_ptr_inplaceINSt13__future_base11_Task_stateISt5_BindIFZN3grk14WaveletForwardINS3_5dwt53EE3runEPNS3_13TileComponentEEUlvE_vEESaIiEFivEEESC_LN9__gnu_cxx12_Lock_policyE2EE@Base 7.2.0
 _ZTISt23_Sp_counted_ptr_inplaceINSt13__future_base11_Task_stateISt5_BindIFZN3grk14WaveletForwardINS3_5dwt97EE3runEPNS3_13TileComponentEEUlvE0_vEESaIiEFivEEESC_LN9__gnu_cxx12_Lock_policyE2EE@Base 7.2.0
 _ZTISt23_Sp_counted_ptr_inplaceINSt13__future_base11_Task_stateISt5_BindIFZN3grk14WaveletForwardINS3_5dwt97EE3runEPNS3_13TileComponentEEUlvE_vEESaIiEFivEEESC_LN9__gnu_cxx12_Lock_policyE2EE@Base 7.2.0
 _ZTISt23_Sp_counted_ptr_inplaceINSt13__future_base11_Task_stateISt5_BindIFZN3grk19decode_partial_tileINS3_7v4_dataELj4ELj4ELj4ENS3_9Partial97EEEbPNS3_13TileComponentEjP12sparse_arrayEUlvE0_vEESaIiEFivEEESE_LN9__gnu_cxx12_Lock_policyE2EE@Base 7.2.0
 _ZTISt23_Sp_counted_ptr_inplaceINSt13__future_base11_Task_stateISt5_BindIFZN3grk19decode_partial_tileINS3_7v4_dataELj4ELj4ELj4ENS3_9Partial97EEEbPNS3_13TileComponentEjP12sparse_arrayEUlvE_vEESaIiEFivEEESE_LN9__gnu_cxx12_Lock_policyE2EE@Base 7.2.0
 _ZTISt23_Sp_counted_ptr_inplaceINSt13__future_base11_Task_stateISt5_BindIFZN3grk19decode_partial_tileIiLj1ELj4ELj2ENS3_9Partial53EEEbPNS3_13TileComponentEjP12sparse_arrayEUlvE0_vEESaIiEFivEEESD_LN9__gnu_cxx12_Lock_policyE2EE@Base 7.2.0
 _ZTISt23_Sp_counted_ptr_inplaceINSt13__future_base11_Task_stateISt5_BindIFZN3grk19decode_partial_tileIiLj1ELj4ELj2ENS3_9Partial53EEEbPNS3_13TileComponentEjP12sparse_arrayEUlvE_vEESaIiEFivEEESD_LN9__gnu_cxx12_Lock_policyE2EE@Base 7.2.0
 _ZTISt23_Sp_counted_ptr_inplaceISt13packaged_taskIFivEESaIS2_ELN9__gnu_cxx12_Lock_policyE2EE@Base 7.2.0
 _ZTSNSt13__future_base11_Task_stateISt5_BindIFZN3grk14WaveletForwardINS2_5dwt53EE3runEPNS2_13TileComponentEEUlvE0_vEESaIiEFivEEE@Base 7.2.0
 _ZTSNSt13__future_base11_Task_stateISt5_BindIFZN3grk14WaveletForwardINS2_5dwt53EE3runEPNS2_13TileComponentEEUlvE_vEESaIiEFivEEE@Base 7.2.0
 _ZTSNSt13__future_base11_Task_stateISt5_BindIFZN3grk14WaveletForwardINS2_5dwt97EE3runEPNS2_13TileComponentEEUlvE0_vEESaIiEFivEEE@Base 7.2.0
 _ZTSNSt13__future_base11_Task_stateISt5_BindIFZN3grk14WaveletForwardINS2_5dwt97EE3runEPNS2_13TileComponentEEUlvE_vEESaIiEFivEEE@Base 7.2.0
 _ZTSNSt13__future_base11_Task_stateISt5_BindIFZN3grk19decode_partial_tileINS2_7v4_dataELj4ELj4ELj4ENS2_9Partial97EEEbPNS2_13TileComponentEjP12sparse_arrayEUlvE0_vEESaIiEFivEEE@Base 7.2.0
 _ZTSNSt13__future_base11_Task_stateISt5_BindIFZN3grk19decode_partial_tileINS2_7v4_dataELj4ELj4ELj4ENS2_9Partial97EEEbPNS2_13TileComponentEjP12sparse_arrayEUlvE_vEESaIiEFivEEE@Base 7.2.0
 _ZTSNSt13__future_base11_Task_stateISt5_BindIFZN3grk19decode_partial_tileIiLj1ELj4ELj2ENS2_9Partial53EEEbPNS2_13TileComponentEjP12sparse_arrayEUlvE0_vEESaIiEFivEEE@Base 7.2.0
 _ZTSNSt13__future_base11_Task_stateISt5_BindIFZN3grk19decode_partial_tileIiLj1ELj4ELj2ENS2_9Partial53EEEbPNS2_13TileComponentEjP12sparse_arrayEUlvE_vEESaIiEFivEEE@Base 7.2.0
 _ZTSNSt13__future_base12_Task_setterISt10unique_ptrINS_7_ResultIiEENS_12_Result_base8_DeleterEEZNS_11_Task_stateISt5_BindIFZN3grk14WaveletForwardINS9_5dwt53EE3runEPNS9_13TileComponentEEUlvE0_vEESaIiEFivEE14_M_run_delayedESt8weak_ptrINS_13_State_baseV2EEEUlvE_iEE@Base 7.2.0
 _ZTSNSt13__future_base12_Task_setterISt10unique_ptrINS_7_ResultIiEENS_12_Result_base8_DeleterEEZNS_11_Task_stateISt5_BindIFZN3grk14WaveletForwardINS9_5dwt53EE3runEPNS9_13TileComponentEEUlvE0_vEESaIiEFivEE6_M_runEvEUlvE_iEE@Base 7.2.0
 _ZTSNSt13__future_base12_Task_setterISt10unique_ptrINS_7_ResultIiEENS_12_Result_base8_DeleterEEZNS_11_Task_stateISt5_BindIFZN3grk14WaveletForwardINS9_5dwt53EE3runEPNS9_13TileComponentEEUlvE_vEESaIiEFivEE14_M_run_delayedESt8weak_ptrINS_13_State_baseV2EEEUlvE_iEE@Base 7.2.0
 _ZTSNSt13__future_base12_Task_setterISt10unique_ptrINS_7_ResultIiEENS_12_Result_base8_DeleterEEZNS_11_Task_stateISt5_BindIFZN3grk14WaveletForwardINS9_5dwt53EE3runEPNS9_13TileComponentEEUlvE_vEESaIiEFivEE6_M_runEvEUlvE_iEE@Base 7.2.0
 _ZTSNSt13__future_base12_Task_setterISt10unique_ptrINS_7_ResultIiEENS_12_Result_base8_DeleterEEZNS_11_Task_stateISt5_BindIFZN3grk14WaveletForwardINS9_5dwt97EE3runEPNS9_13TileComponentEEUlvE0_vEESaIiEFivEE14_M_run_delayedESt8weak_ptrINS_13_State_baseV2EEEUlvE_iEE@Base 7.2.0
 _ZTSNSt13__future_base12_Task_setterISt10unique_ptrINS_7_ResultIiEENS_12_Result_base8_DeleterEEZNS_11_Task_stateISt5_BindIFZN3grk14WaveletForwardINS9_5dwt97EE3runEPNS9_13TileComponentEEUlvE0_vEESaIiEFivEE6_M_runEvEUlvE_iEE@Base 7.2.0
 _ZTSNSt13__future_base12_Task_setterISt10unique_ptrINS_7_ResultIiEENS_12_Result_base8_DeleterEEZNS_11_Task_stateISt5_BindIFZN3grk14WaveletForwardINS9_5dwt97EE3runEPNS9_13TileComponentEEUlvE_vEESaIiEFivEE14_M_run_delayedESt8weak_ptrINS_13_State_baseV2EEEUlvE_iEE@Base 7.2.0
 _ZTSNSt13__future_base12_Task_setterISt10unique_ptrINS_7_ResultIiEENS_12_Result_base8_DeleterEEZNS_11_Task_stateISt5_BindIFZN3grk14WaveletForwardINS9_5dwt97EE3runEPNS9_13TileComponentEEUlvE_vEESaIiEFivEE6_M_runEvEUlvE_iEE@Base 7.2.0
 _ZTSNSt13__future_base12_Task_setterISt10unique_ptrINS_7_ResultIiEENS_12_Result_base8_DeleterEEZNS_11_Task_stateISt5_BindIFZN3grk19decode_partial_tileINS9_7v4_dataELj4ELj4ELj4ENS9_9Partial97EEEbPNS9_13TileComponentEjP12sparse_arrayEUlvE0_vEESaIiEFivEE14_M_run_delayedESt8weak_ptrINS_13_State_baseV2EEEUlvE_iEE@Base 7.2.0
 _ZTSNSt13__future_base12_Task_setterISt10unique_ptrINS_7_ResultIiEENS_12_Result_base8_DeleterEEZNS_11_Task_stateISt5_BindIFZN3grk19decode_partial_tileINS9_7v4_dataELj4ELj4ELj4ENS9_9Partial97EEEbPNS9_13TileComponentEjP12sparse_arrayEUlvE0_vEESaIiEFivEE6_M_runEvEUlvE_iEE@Base 7.2.0
 _ZTSNSt13__future_base12_Task_setterISt10unique_ptrINS_7_ResultIiEENS_12_Result_base8_DeleterEEZNS_11_Task_stateISt5_BindIFZN3grk19decode_partial_tileINS9_7v4_dataELj4ELj4ELj4ENS9_9Partial97EEEbPNS9_13TileComponentEjP12sparse_arrayEUlvE_vEESaIiEFivEE14_M_run_delayedESt8weak_ptrINS_13_State_baseV2EEEUlvE_iEE@Base 7.2.0
 _ZTSNSt13__future_base12_Task_setterISt10unique_ptrINS_7_ResultIiEENS_12_Result_base8_DeleterEEZNS_11_Task_stateISt5_BindIFZN3grk19decode_partial_tileINS9_7v4_dataELj4ELj4ELj4ENS9_9Partial97EEEbPNS9_13TileComponentEjP12sparse_arrayEUlvE_vEESaIiEFivEE6_M_runEvEUlvE_iEE@Base 7.2.0
 _ZTSNSt13__future_base12_Task_setterISt10unique_ptrINS_7_ResultIiEENS_12_Result_base8_DeleterEEZNS_11_Task_stateISt5_BindIFZN3grk19decode_partial_tileIiLj1ELj4ELj2ENS9_9Partial53EEEbPNS9_13TileComponentEjP12sparse_arrayEUlvE0_vEESaIiEFivEE14_M_run_delayedESt8weak_ptrINS_13_State_baseV2EEEUlvE_iEE@Base 7.2.0
 _ZTSNSt13__future_base12_Task_setterISt10unique_ptrINS_7_ResultIiEENS_12_Result_base8_DeleterEEZNS_11_Task_stateISt5_BindIFZN3grk19decode_partial_tileIiLj1ELj4ELj2ENS9_9Partial53EEEbPNS9_13TileComponentEjP12sparse_arrayEUlvE0_vEESaIiEFivEE6_M_runEvEUlvE_iEE@Base 7.2.0
 _ZTSNSt13__future_base12_Task_setterISt10unique_ptrINS_7_ResultIiEENS_12_Result_base8_DeleterEEZNS_11_Task_stateISt5_BindIFZN3grk19decode_partial_tileIiLj1ELj4ELj2ENS9_9Partial53EEEbPNS9_13TileComponentEjP12sparse_arrayEUlvE_vEESaIiEFivEE14_M_run_delayedESt8weak_ptrINS_13_State_baseV2EEEUlvE_iEE@Base 7.2.0
 _ZTSNSt13__future_base12_Task_setterISt10unique_ptrINS_7_ResultIiEENS_12_Result_base8_DeleterEEZNS_11_Task_stateISt5_BindIFZN3grk19decode_partial_tileIiLj1ELj4ELj2ENS9_9Partial53EEEbPNS9_13TileComponentEjP12sparse_arrayEUlvE_vEESaIiEFivEE6_M_runEvEUlvE_iEE@Base 7.2.0
 _ZTSNSt13__future_base13_State_baseV2E@Base 7.2.0
 _ZTSNSt13__future_base16_Task_state_baseIFivEEE@Base 7.2.0
 _ZTSNSt13__future_base7_ResultIiEE@Base 7.2.0
 _ZTSNSt6thread11_State_implINS_8_InvokerISt5tupleIJZN10ThreadPoolC4EmEUlvE_EEEEEE@Base 7.2.0
 _ZTSPSt9exception@Base 7.2.0
 _ZTSSt11_Mutex_baseILN9__gnu_cxx12_Lock_policyE2EE@Base 7.2.0
 _ZTSSt16_Sp_counted_baseILN9__gnu_cxx12_Lock_policyE2EE@Base 7.2.0
 _ZTSSt19_Sp_make_shared_tag@Base 7.2.0
 _ZTSSt23_Sp_counted_ptr_inplaceINSt13__future_base11_Task_stateISt5_BindIFZN3grk14WaveletForwardINS3_5dwt53EE3runEPNS3_13TileComponentEEUlvE0_vEESaIiEFivEEESC_LN9__gnu_cxx12_Lock_policyE2EE@Base 7.2.0
 _ZTSSt23_Sp_counted_ptr_inplaceINSt13__future_base11_Task_stateISt5_BindIFZN3grk14WaveletForwardINS3_5dwt53EE3runEPNS3_13TileComponentEEUlvE_vEESaIiEFivEEESC_LN9__gnu_cxx12_Lock_policyE2EE@Base 7.2.0
 _ZTSSt23_Sp_counted_ptr_inplaceINSt13__future_base11_Task_stateISt5_BindIFZN3grk14WaveletForwardINS3_5dwt97EE3runEPNS3_13TileComponentEEUlvE0_vEESaIiEFivEEESC_LN9__gnu_cxx12_Lock_policyE2EE@Base 7.2.0
 _ZTSSt23_Sp_counted_ptr_inplaceINSt13__future_base11_Task_stateISt5_BindIFZN3grk14WaveletForwardINS3_5dwt97EE3runEPNS3_13TileComponentEEUlvE_vEESaIiEFivEEESC_LN9__gnu_cxx12_Lock_policyE2EE@Base 7.2.0
 _ZTSSt23_Sp_counted_ptr_inplaceINSt13__future_base11_Task_stateISt5_BindIFZN3grk19decode_partial_tileINS3_7v4_dataELj4ELj4ELj4ENS3_9Partial97EEEbPNS3_13TileComponentEjP12sparse_arrayEUlvE0_vEESaIiEFivEEESE_LN9__gnu_cxx12_Lock_policyE2EE@Base 7.2.0
 _ZTSSt23_Sp_counted_ptr_inplaceINSt13__future_base11_Task_stateISt5_BindIFZN3grk19decode_partial_tileINS3_7v4_dataELj4ELj4ELj4ENS3_9Partial97EEEbPNS3_13TileComponentEjP12sparse_arrayEUlvE_vEESaIiEFivEEESE_LN9__gnu_cxx12_Lock_policyE2EE@Base 7.2.0
 _ZTSSt23_Sp_counted_ptr_inplaceINSt13__future_base11_Task_stateISt5_BindIFZN3grk19decode_partial_tileIiLj1ELj4ELj2ENS3_9Partial53EEEbPNS3_13TileComponentEjP12sparse_arrayEUlvE0_vEESaIiEFivEEESD_LN9__gnu_cxx12_Lock_policyE2EE@Base 7.2.0
 _ZTSSt23_Sp_counted_ptr_inplaceINSt13__future_base11_Task_stateISt5_BindIFZN3grk19decode_partial_tileIiLj1ELj4ELj2ENS3_9Partial53EEEbPNS3_13TileComponentEjP12sparse_arrayEUlvE_vEESaIiEFivEEESD_LN9__gnu_cxx12_Lock_policyE2EE@Base 7.2.0
 _ZTSSt23_Sp_counted_ptr_inplaceISt13packaged_taskIFivEESaIS2_ELN9__gnu_cxx12_Lock_policyE2EE@Base 7.2.0
 _ZTVNSt13__future_base11_Task_stateISt5_BindIFZN3grk14WaveletForwardINS2_5dwt53EE3runEPNS2_13TileComponentEEUlvE0_vEESaIiEFivEEE@Base 7.2.0
 _ZTVNSt13__future_base11_Task_stateISt5_BindIFZN3grk14WaveletForwardINS2_5dwt53EE3runEPNS2_13TileComponentEEUlvE_vEESaIiEFivEEE@Base 7.2.0
 _ZTVNSt13__future_base11_Task_stateISt5_BindIFZN3grk14WaveletForwardINS2_5dwt97EE3runEPNS2_13TileComponentEEUlvE0_vEESaIiEFivEEE@Base 7.2.0
 _ZTVNSt13__future_base11_Task_stateISt5_BindIFZN3grk14WaveletForwardINS2_5dwt97EE3runEPNS2_13TileComponentEEUlvE_vEESaIiEFivEEE@Base 7.2.0
 _ZTVNSt13__future_base11_Task_stateISt5_BindIFZN3grk19decode_partial_tileINS2_7v4_dataELj4ELj4ELj4ENS2_9Partial97EEEbPNS2_13TileComponentEjP12sparse_arrayEUlvE0_vEESaIiEFivEEE@Base 7.2.0
 _ZTVNSt13__future_base11_Task_stateISt5_BindIFZN3grk19decode_partial_tileINS2_7v4_dataELj4ELj4ELj4ENS2_9Partial97EEEbPNS2_13TileComponentEjP12sparse_arrayEUlvE_vEESaIiEFivEEE@Base 7.2.0
 _ZTVNSt13__future_base11_Task_stateISt5_BindIFZN3grk19decode_partial_tileIiLj1ELj4ELj2ENS2_9Partial53EEEbPNS2_13TileComponentEjP12sparse_arrayEUlvE0_vEESaIiEFivEEE@Base 7.2.0
 _ZTVNSt13__future_base11_Task_stateISt5_BindIFZN3grk19decode_partial_tileIiLj1ELj4ELj2ENS2_9Partial53EEEbPNS2_13TileComponentEjP12sparse_arrayEUlvE_vEESaIiEFivEEE@Base 7.2.0
 _ZTVNSt13__future_base13_State_baseV2E@Base 7.2.0
 _ZTVNSt13__future_base16_Task_state_baseIFivEEE@Base 7.2.0
 _ZTVNSt13__future_base7_ResultIiEE@Base 7.2.0
 _ZTVNSt6thread11_State_implINS_8_InvokerISt5tupleIJZN10ThreadPoolC4EmEUlvE_EEEEEE@Base 7.2.0
 _ZTVSt23_Sp_counted_ptr_inplaceINSt13__future_base11_Task_stateISt5_BindIFZN3grk14WaveletForwardINS3_5dwt53EE3runEPNS3_13TileComponentEEUlvE0_vEESaIiEFivEEESC_LN9__gnu_cxx12_Lock_policyE2EE@Base 7.2.0
 _ZTVSt23_Sp_counted_ptr_inplaceINSt13__future_base11_Task_stateISt5_BindIFZN3grk14WaveletForwardINS3_5dwt53EE3runEPNS3_13TileComponentEEUlvE_vEESaIiEFivEEESC_LN9__gnu_cxx12_Lock_policyE2EE@Base 7.2.0
 _ZTVSt23_Sp_counted_ptr_inplaceINSt13__future_base11_Task_stateISt5_BindIFZN3grk14WaveletForwardINS3_5dwt97EE3runEPNS3_13TileComponentEEUlvE0_vEESaIiEFivEEESC_LN9__gnu_cxx12_Lock_policyE2EE@Base 7.2.0
 _ZTVSt23_Sp_counted_ptr_inplaceINSt13__future_base11_Task_stateISt5_BindIFZN3grk14WaveletForwardINS3_5dwt97EE3runEPNS3_13TileComponentEEUlvE_vEESaIiEFivEEESC_LN9__gnu_cxx12_Lock_policyE2EE@Base 7.2.0
 _ZTVSt23_Sp_counted_ptr_inplaceINSt13__future_base11_Task_stateISt5_BindIFZN3grk19decode_partial_tileINS3_7v4_dataELj4ELj4ELj4ENS3_9Partial97EEEbPNS3_13TileComponentEjP12sparse_arrayEUlvE0_vEESaIiEFivEEESE_LN9__gnu_cxx12_Lock_policyE2EE@Base 7.2.0
 _ZTVSt23_Sp_counted_ptr_inplaceINSt13__future_base11_Task_stateISt5_BindIFZN3grk19decode_partial_tileINS3_7v4_dataELj4ELj4ELj4ENS3_9Partial97EEEbPNS3_13TileComponentEjP12sparse_arrayEUlvE_vEESaIiEFivEEESE_LN9__gnu_cxx12_Lock_policyE2EE@Base 7.2.0
 _ZTVSt23_Sp_counted_ptr_inplaceINSt13__future_base11_Task_stateISt5_BindIFZN3grk19decode_partial_tileIiLj1ELj4ELj2ENS3_9Partial53EEEbPNS3_13TileComponentEjP12sparse_arrayEUlvE0_vEESaIiEFivEEESD_LN9__gnu_cxx12_Lock_policyE2EE@Base 7.2.0
 _ZTVSt23_Sp_counted_ptr_inplaceINSt13__future_base11_Task_stateISt5_BindIFZN3grk19decode_partial_tileIiLj1ELj4ELj2ENS3_9Partial53EEEbPNS3_13TileComponentEjP12sparse_arrayEUlvE_vEESaIiEFivEEESD_LN9__gnu_cxx12_Lock_policyE2EE@Base 7.2.0
 _ZTVSt23_Sp_counted_ptr_inplaceISt13packaged_taskIFivEESaIS2_ELN9__gnu_cxx12_Lock_policyE2EE@Base 7.2.0
 _ZZNSt19_Sp_make_shared_tag5_S_tiEvE5__tag@Base 7.2.0
 _ZZSt9call_onceIMNSt13__future_base13_State_baseV2EFvPSt8functionIFSt10unique_ptrINS0_12_Result_baseENS4_8_DeleterEEvEEPbEJPS1_S9_SA_EEvRSt9once_flagOT_DpOT0_ENUlvE0_4_FUNEv@Base 7.2.0
 grk_buffer_delete@Base 7.2.0
 grk_buffer_new@Base 7.2.0
 grk_compress@Base 7.2.0
 grk_compress_tile@Base 7.2.0
 grk_compress_with_plugin@Base 7.2.0
 grk_create_compress@Base 7.2.0
 grk_create_decompress@Base 7.2.0
 grk_decompress@Base 7.2.0
 grk_decompress_tile@Base 7.2.0
 grk_decompress_tile_to_buffer@Base 7.2.0
 grk_deinitialize@Base 7.2.0
 grk_destroy_codec@Base 7.2.0
 grk_destroy_cstr_index@Base 7.2.0
 grk_destroy_cstr_info@Base 7.2.0
 grk_dump_codec@Base 7.2.0
 grk_end_compress@Base 7.2.0
 grk_end_decompress@Base 7.2.0
 grk_get_cstr_index@Base 7.2.0
 grk_get_cstr_info@Base 7.2.0
 grk_image_all_components_data_free@Base 7.2.0
 grk_image_create@Base 7.2.0
 grk_image_destroy@Base 7.2.0
 grk_image_single_component_data_alloc@Base 7.2.0
 grk_image_single_component_data_free@Base 7.2.0
 grk_init_compress@Base 7.2.0
 grk_init_decompress@Base 7.2.0
 grk_initialize@Base 7.2.0
 grk_plugin_batch_compress@Base 7.2.0
 grk_plugin_batch_decompress@Base 7.2.0
 grk_plugin_cleanup@Base 7.2.0
 grk_plugin_compress@Base 7.2.0
 grk_plugin_decompress@Base 7.2.0
 grk_plugin_get_debug_state@Base 7.2.0
 grk_plugin_init@Base 7.2.0
 grk_plugin_init_batch_decompress@Base 7.2.0
 grk_plugin_is_batch_complete@Base 7.2.0
 grk_plugin_load@Base 7.2.0
 grk_plugin_stop_batch_compress@Base 7.2.0
 grk_plugin_stop_batch_decompress@Base 7.2.0
 grk_read_header@Base 7.2.0
 grk_read_tile_header@Base 7.2.0
 grk_set_MCT@Base 7.2.0
 grk_set_decompress_area@Base 7.2.0
 grk_set_default_compress_params@Base 7.2.0
 grk_set_default_decompress_params@Base 7.2.0
 grk_set_error_handler@Base 7.2.0
 grk_set_info_handler@Base 7.2.0
 grk_set_warning_handler@Base 7.2.0
 grk_start_compress@Base 7.2.0
 grk_stream_create@Base 7.2.0
 grk_stream_create_file_stream@Base 7.2.0
 grk_stream_create_mapped_file_read_stream@Base 7.2.0
 grk_stream_create_mem_stream@Base 7.2.0
 grk_stream_destroy@Base 7.2.0
 grk_stream_get_write_mem_stream_length@Base 7.2.0
 grk_stream_set_read_function@Base 7.2.0
 grk_stream_set_seek_function@Base 7.2.0
 grk_stream_set_user_data@Base 7.2.0
 grk_stream_set_user_data_length@Base 7.2.0
 grk_stream_set_write_function@Base 7.2.0
 grk_stream_set_zero_copy_read_function@Base 7.2.0
 grk_version@Base 7.2.0
